target datalayout = "e-m:e-p270:32:32-p271:32:32-p272:64:64-i64:64-i128:128-f80:128-n8:16:32:64-S128"
target triple = "x86_64-pc-linux-gnu"

%struct.quic_conn_id_st = type { i8, [20 x i8] }
%union.bio_addr_st = type { %struct.sockaddr_in6, [84 x i8] }
%struct.sockaddr_in6 = type { i16, i16, i32, %struct.in6_addr, i32 }
%struct.in6_addr = type { %union.anon }
%union.anon = type { [4 x i32] }
%struct.OSSL_TIME = type { i64 }
%struct.quic_channel_st = type { ptr, %struct.anon, %struct.anon.0, ptr, ptr, ptr, ptr, ptr, ptr, ptr, i64, %union.bio_addr_st, ptr, ptr, ptr, %struct.quic_txfc_st, %struct.quic_rxfc_st, [3 x %struct.quic_rxfc_st], %struct.quic_rxfc_st, %struct.quic_rxfc_st, %struct.quic_stream_map_st, %struct.ossl_statm_st, ptr, ptr, ptr, ptr, ptr, ptr, ptr, ptr, [3 x ptr], [3 x ptr], %struct.quic_conn_id_st, %struct.quic_conn_id_st, %struct.quic_conn_id_st, %struct.quic_conn_id_st, %struct.quic_conn_id_st, %struct.quic_conn_id_st, i64, i64, i64, i64, i64, i64, i64, i64, i64, i64, i8, i16, ptr, i64, i64, i64, i64, i64, i64, i64, i64, i64, i64, i64, i64, i64, %struct.quic_terminate_cause_st, %struct.OSSL_TIME, %struct.OSSL_TIME, %struct.OSSL_TIME, %struct.OSSL_TIME, %struct.OSSL_TIME, i64, i64, i64, ptr, ptr, i64, ptr }
%struct.anon = type { ptr, ptr }
%struct.anon.0 = type { ptr, ptr }
%struct.quic_txfc_st = type { ptr, i64, i64, i8 }
%struct.quic_rxfc_st = type { i64, i64, i64, i64, i64, i64, i64, %struct.OSSL_TIME, ptr, ptr, ptr, i8, i8, i8, i8 }
%struct.quic_stream_map_st = type { ptr, %struct.quic_stream_list_node_st, %struct.quic_stream_list_node_st, %struct.quic_stream_list_node_st, i64, i64, i64, i64, i64, ptr, ptr, ptr, ptr, ptr, i32 }
%struct.quic_stream_list_node_st = type { ptr, ptr }
%struct.ossl_statm_st = type { %struct.OSSL_TIME, %struct.OSSL_TIME, %struct.OSSL_TIME, %struct.OSSL_TIME, i8 }
%struct.quic_terminate_cause_st = type { i64, i64, ptr, i64, i8 }
%struct.qlog_trace_info_st = type { %struct.quic_conn_id_st, ptr, ptr, ptr, i32, ptr, ptr, i64, ptr }

@.str = private unnamed_addr constant [35 x i8] c"../openssl/ssl/quic/quic_channel.c\00", align 1
@.str.93 = private unnamed_addr constant [33 x i8] c"no transport parameters received\00", align 1
@__func__.ch_on_handshake_complete = private unnamed_addr constant [25 x i8] c"ch_on_handshake_complete\00", align 1

; Function Attrs: nounwind uwtable
define internal ptr @ch_get_qlog(ptr noundef %0) #0 {
  %2 = alloca ptr, align 8
  %3 = alloca ptr, align 8
  %4 = alloca %struct.qlog_trace_info_st, align 8
  %5 = alloca i32, align 4
  store ptr %0, ptr %3, align 8, !tbaa !3
  call void @llvm.lifetime.start.p0(i64 88, ptr %4) #9
  call void @llvm.memset.p0.i64(ptr align 8 %4, i8 0, i64 88, i1 false)
  %6 = load ptr, ptr %3, align 8, !tbaa !3
  %7 = getelementptr inbounds nuw %struct.quic_channel_st, ptr %6, i32 0, i32 7
  %8 = load ptr, ptr %7, align 8, !tbaa !171
  %9 = icmp ne ptr %8, null
  br i1 %9, label %10, label %14

10:                                               ; preds = %1
  %11 = load ptr, ptr %3, align 8, !tbaa !3
  %12 = getelementptr inbounds nuw %struct.quic_channel_st, ptr %11, i32 0, i32 7
  %13 = load ptr, ptr %12, align 8, !tbaa !171
  store ptr %13, ptr %2, align 8
  store i32 1, ptr %5, align 4
  br label %73

14:                                               ; preds = %1
  %15 = load ptr, ptr %3, align 8, !tbaa !3
  %16 = getelementptr inbounds nuw %struct.quic_channel_st, ptr %15, i32 0, i32 72
  %17 = load i64, ptr %16, align 8
  %18 = lshr i64 %17, 41
  %19 = and i64 %18, 1
  %20 = trunc i64 %19 to i32
  %21 = icmp ne i32 %20, 0
  br i1 %21, label %23, label %22

22:                                               ; preds = %14
  store ptr null, ptr %2, align 8
  store i32 1, ptr %5, align 4
  br label %73

23:                                               ; preds = %14
  %24 = load ptr, ptr %3, align 8, !tbaa !3
  %25 = getelementptr inbounds nuw %struct.quic_channel_st, ptr %24, i32 0, i32 72
  %26 = load i64, ptr %25, align 8
  %27 = lshr i64 %26, 25
  %28 = and i64 %27, 1
  %29 = trunc i64 %28 to i32
  %30 = icmp ne i32 %29, 0
  br i1 %30, label %31, label %39

31:                                               ; preds = %23
  %32 = load ptr, ptr %3, align 8, !tbaa !3
  %33 = getelementptr inbounds nuw %struct.quic_channel_st, ptr %32, i32 0, i32 32
  %34 = getelementptr inbounds nuw %struct.quic_conn_id_st, ptr %33, i32 0, i32 0
  %35 = load i8, ptr %34, align 8, !tbaa !219
  %36 = zext i8 %35 to i32
  %37 = icmp eq i32 %36, 0
  br i1 %37, label %38, label %39

38:                                               ; preds = %31
  store ptr null, ptr %2, align 8
  store i32 1, ptr %5, align 4
  br label %73

39:                                               ; preds = %31, %23
  %40 = getelementptr inbounds nuw %struct.qlog_trace_info_st, ptr %4, i32 0, i32 0
  %41 = load ptr, ptr %3, align 8, !tbaa !3
  %42 = getelementptr inbounds nuw %struct.quic_channel_st, ptr %41, i32 0, i32 32
  call void @llvm.memcpy.p0.p0.i64(ptr align 8 %40, ptr align 8 %42, i64 21, i1 false), !tbaa.struct !88
  %43 = load ptr, ptr %3, align 8, !tbaa !3
  %44 = getelementptr inbounds nuw %struct.quic_channel_st, ptr %43, i32 0, i32 76
  %45 = load ptr, ptr %44, align 8, !tbaa !161
  %46 = getelementptr inbounds nuw %struct.qlog_trace_info_st, ptr %4, i32 0, i32 1
  store ptr %45, ptr %46, align 8, !tbaa !221
  %47 = getelementptr inbounds nuw %struct.qlog_trace_info_st, ptr %4, i32 0, i32 2
  store ptr null, ptr %47, align 8, !tbaa !223
  %48 = getelementptr inbounds nuw %struct.qlog_trace_info_st, ptr %4, i32 0, i32 3
  store ptr null, ptr %48, align 8, !tbaa !224
  %49 = load ptr, ptr %3, align 8, !tbaa !3
  %50 = getelementptr inbounds nuw %struct.quic_channel_st, ptr %49, i32 0, i32 72
  %51 = load i64, ptr %50, align 8
  %52 = lshr i64 %51, 25
  %53 = and i64 %52, 1
  %54 = trunc i64 %53 to i32
  %55 = getelementptr inbounds nuw %struct.qlog_trace_info_st, ptr %4, i32 0, i32 4
  store i32 %54, ptr %55, align 8, !tbaa !225
  %56 = getelementptr inbounds nuw %struct.qlog_trace_info_st, ptr %4, i32 0, i32 5
  store ptr @get_time, ptr %56, align 8, !tbaa !226
  %57 = load ptr, ptr %3, align 8, !tbaa !3
  %58 = getelementptr inbounds nuw %struct.qlog_trace_info_st, ptr %4, i32 0, i32 6
  store ptr %57, ptr %58, align 8, !tbaa !227
  %59 = call ptr @ossl_qlog_new_from_env(ptr noundef %4)
  %60 = load ptr, ptr %3, align 8, !tbaa !3
  %61 = getelementptr inbounds nuw %struct.quic_channel_st, ptr %60, i32 0, i32 7
  store ptr %59, ptr %61, align 8, !tbaa !171
  %62 = icmp eq ptr %59, null
  br i1 %62, label %63, label %69

63:                                               ; preds = %39
  %64 = load ptr, ptr %3, align 8, !tbaa !3
  %65 = getelementptr inbounds nuw %struct.quic_channel_st, ptr %64, i32 0, i32 72
  %66 = load i64, ptr %65, align 8
  %67 = and i64 %66, -2199023255553
  %68 = or i64 %67, 0
  store i64 %68, ptr %65, align 8
  store ptr null, ptr %2, align 8
  store i32 1, ptr %5, align 4
  br label %73

69:                                               ; preds = %39
  %70 = load ptr, ptr %3, align 8, !tbaa !3
  %71 = getelementptr inbounds nuw %struct.quic_channel_st, ptr %70, i32 0, i32 7
  %72 = load ptr, ptr %71, align 8, !tbaa !171
  store ptr %72, ptr %2, align 8
  store i32 1, ptr %5, align 4
  br label %73

73:                                               ; preds = %69, %63, %38, %22, %10
  call void @llvm.lifetime.end.p0(i64 88, ptr %4) #9
  %74 = load ptr, ptr %2, align 8
  ret ptr %74
}

; Function Attrs: nounwind uwtable
define internal void @ch_record_state_transition(ptr noundef %0, i32 noundef %1) #0 {
  %3 = alloca ptr, align 8
  %4 = alloca i32, align 4
  %5 = alloca i32, align 4
  store ptr %0, ptr %3, align 8, !tbaa !3
  store i32 %1, ptr %4, align 4, !tbaa !80
  call void @llvm.lifetime.start.p0(i64 4, ptr %5) #9
  %6 = load ptr, ptr %3, align 8, !tbaa !3
  %7 = getelementptr inbounds nuw %struct.quic_channel_st, ptr %6, i32 0, i32 72
  %8 = load i64, ptr %7, align 8
  %9 = and i64 %8, 7
  %10 = trunc i64 %9 to i32
  store i32 %10, ptr %5, align 4, !tbaa !80
  %11 = load i32, ptr %4, align 4, !tbaa !80
  %12 = load ptr, ptr %3, align 8, !tbaa !3
  %13 = getelementptr inbounds nuw %struct.quic_channel_st, ptr %12, i32 0, i32 72
  %14 = zext i32 %11 to i64
  %15 = load i64, ptr %13, align 8
  %16 = and i64 %14, 7
  %17 = and i64 %15, -8
  %18 = or i64 %17, %16
  store i64 %18, ptr %13, align 8
  %19 = load ptr, ptr %3, align 8, !tbaa !3
  %20 = call ptr @ch_get_qlog(ptr noundef %19)
  %21 = load i32, ptr %5, align 4, !tbaa !80
  %22 = load i32, ptr %4, align 4, !tbaa !80
  %23 = load ptr, ptr %3, align 8, !tbaa !3
  %24 = getelementptr inbounds nuw %struct.quic_channel_st, ptr %23, i32 0, i32 72
  %25 = load i64, ptr %24, align 8
  %26 = lshr i64 %25, 9
  %27 = and i64 %26, 1
  %28 = trunc i64 %27 to i32
  %29 = load ptr, ptr %3, align 8, !tbaa !3
  %30 = getelementptr inbounds nuw %struct.quic_channel_st, ptr %29, i32 0, i32 72
  %31 = load i64, ptr %30, align 8
  %32 = lshr i64 %31, 10
  %33 = and i64 %32, 1
  %34 = trunc i64 %33 to i32
  call void @ossl_qlog_event_connectivity_connection_state_updated(ptr noundef %20, i32 noundef %21, i32 noundef %22, i32 noundef %28, i32 noundef %34)
  call void @llvm.lifetime.end.p0(i64 4, ptr %5) #9
  ret void
}

; Function Attrs: nounwind uwtable
define internal i32 @ch_on_handshake_complete(ptr noundef %0) #0 {
  %2 = alloca i32, align 4
  %3 = alloca ptr, align 8
  %4 = alloca ptr, align 8
  %5 = alloca i32, align 4
  store ptr %0, ptr %3, align 8, !tbaa !172
  call void @llvm.lifetime.start.p0(i64 8, ptr %4) #9
  %6 = load ptr, ptr %3, align 8, !tbaa !172
  store ptr %6, ptr %4, align 8, !tbaa !3
  %7 = load ptr, ptr %4, align 8, !tbaa !3
  %8 = getelementptr inbounds nuw %struct.quic_channel_st, ptr %7, i32 0, i32 72
  %9 = load i64, ptr %8, align 8
  %10 = lshr i64 %9, 9
  %11 = and i64 %10, 1
  %12 = trunc i64 %11 to i32
  %13 = icmp ne i32 %12, 0
  %14 = xor i1 %13, true
  %15 = zext i1 %14 to i32
  %16 = icmp ne i32 %15, 0
  %17 = xor i1 %16, true
  %18 = xor i1 %17, true
  %19 = zext i1 %18 to i32
  %20 = sext i32 %19 to i64
  %21 = call i64 @llvm.expect.i64(i64 %20, i64 1)
  %22 = icmp ne i64 %21, 0
  br i1 %22, label %24, label %23

23:                                               ; preds = %1
  store i32 0, ptr %2, align 4
  store i32 1, ptr %5, align 4
  br label %112

24:                                               ; preds = %1
  %25 = load ptr, ptr %4, align 8, !tbaa !3
  %26 = getelementptr inbounds nuw %struct.quic_channel_st, ptr %25, i32 0, i32 72
  %27 = load i64, ptr %26, align 8
  %28 = lshr i64 %27, 14
  %29 = and i64 %28, 7
  %30 = trunc i64 %29 to i32
  %31 = icmp eq i32 %30, 3
  %32 = zext i1 %31 to i32
  %33 = icmp ne i32 %32, 0
  %34 = xor i1 %33, true
  %35 = xor i1 %34, true
  %36 = zext i1 %35 to i32
  %37 = sext i32 %36 to i64
  %38 = call i64 @llvm.expect.i64(i64 %37, i64 1)
  %39 = icmp ne i64 %38, 0
  br i1 %39, label %41, label %40

40:                                               ; preds = %24
  store i32 0, ptr %2, align 4
  store i32 1, ptr %5, align 4
  br label %112

41:                                               ; preds = %24
  %42 = load ptr, ptr %4, align 8, !tbaa !3
  %43 = getelementptr inbounds nuw %struct.quic_channel_st, ptr %42, i32 0, i32 12
  %44 = load ptr, ptr %43, align 8, !tbaa !112
  call void @ossl_quic_tx_packetiser_set_validated(ptr noundef %44)
  %45 = load ptr, ptr %4, align 8, !tbaa !3
  %46 = getelementptr inbounds nuw %struct.quic_channel_st, ptr %45, i32 0, i32 72
  %47 = load i64, ptr %46, align 8
  %48 = lshr i64 %47, 7
  %49 = and i64 %48, 1
  %50 = trunc i64 %49 to i32
  %51 = icmp ne i32 %50, 0
  br i1 %51, label %54, label %52

52:                                               ; preds = %41
  %53 = load ptr, ptr %4, align 8, !tbaa !3
  call void @ossl_quic_channel_raise_protocol_error_loc(ptr noundef %53, i64 noundef 365, i64 noundef 6, ptr noundef @.str.93, ptr noundef null, ptr noundef @.str, i32 noundef 1119, ptr noundef @__func__.ch_on_handshake_complete)
  store i32 0, ptr %2, align 4
  store i32 1, ptr %5, align 4
  br label %112

54:                                               ; preds = %41
  %55 = load ptr, ptr %4, align 8, !tbaa !3
  %56 = getelementptr inbounds nuw %struct.quic_channel_st, ptr %55, i32 0, i32 8
  %57 = load ptr, ptr %56, align 8, !tbaa !166
  call void @CRYPTO_free(ptr noundef %57, ptr noundef @.str, i32 noundef 1124)
  %58 = load ptr, ptr %4, align 8, !tbaa !3
  %59 = getelementptr inbounds nuw %struct.quic_channel_st, ptr %58, i32 0, i32 8
  store ptr null, ptr %59, align 8, !tbaa !166
  %60 = load ptr, ptr %4, align 8, !tbaa !3
  %61 = getelementptr inbounds nuw %struct.quic_channel_st, ptr %60, i32 0, i32 26
  %62 = load ptr, ptr %61, align 8, !tbaa !119
  call void @ossl_qrx_allow_1rtt_processing(ptr noundef %62)
  %63 = load ptr, ptr %4, align 8, !tbaa !3
  %64 = getelementptr inbounds nuw %struct.quic_channel_st, ptr %63, i32 0, i32 12
  %65 = load ptr, ptr %64, align 8, !tbaa !112
  call void @ossl_quic_tx_packetiser_notify_handshake_complete(ptr noundef %65)
  %66 = load ptr, ptr %4, align 8, !tbaa !3
  %67 = getelementptr inbounds nuw %struct.quic_channel_st, ptr %66, i32 0, i32 72
  %68 = load i64, ptr %67, align 8
  %69 = and i64 %68, -513
  %70 = or i64 %69, 512
  store i64 %70, ptr %67, align 8
  %71 = load ptr, ptr %4, align 8, !tbaa !3
  %72 = getelementptr inbounds nuw %struct.quic_channel_st, ptr %71, i32 0, i32 9
  %73 = load ptr, ptr %72, align 8, !tbaa !170
  %74 = icmp ne ptr %73, null
  br i1 %74, label %75, label %91

75:                                               ; preds = %54
  %76 = load ptr, ptr %4, align 8, !tbaa !3
  %77 = load ptr, ptr %4, align 8, !tbaa !3
  %78 = getelementptr inbounds nuw %struct.quic_channel_st, ptr %77, i32 0, i32 9
  %79 = load ptr, ptr %78, align 8, !tbaa !170
  %80 = load ptr, ptr %4, align 8, !tbaa !3
  %81 = getelementptr inbounds nuw %struct.quic_channel_st, ptr %80, i32 0, i32 10
  %82 = load i64, ptr %81, align 8, !tbaa !286
  %83 = call i32 @ossl_quic_channel_schedule_new_token(ptr noundef %76, ptr noundef %79, i64 noundef %82)
  %84 = load ptr, ptr %4, align 8, !tbaa !3
  %85 = getelementptr inbounds nuw %struct.quic_channel_st, ptr %84, i32 0, i32 9
  %86 = load ptr, ptr %85, align 8, !tbaa !170
  call void @CRYPTO_free(ptr noundef %86, ptr noundef @.str, i32 noundef 1147)
  %87 = load ptr, ptr %4, align 8, !tbaa !3
  %88 = getelementptr inbounds nuw %struct.quic_channel_st, ptr %87, i32 0, i32 9
  store ptr null, ptr %88, align 8, !tbaa !170
  %89 = load ptr, ptr %4, align 8, !tbaa !3
  %90 = getelementptr inbounds nuw %struct.quic_channel_st, ptr %89, i32 0, i32 10
  store i64 0, ptr %90, align 8, !tbaa !286
  br label %91

91:                                               ; preds = %75, %54
  %92 = load ptr, ptr %4, align 8, !tbaa !3
  %93 = getelementptr inbounds nuw %struct.quic_channel_st, ptr %92, i32 0, i32 72
  %94 = load i64, ptr %93, align 8
  %95 = lshr i64 %94, 25
  %96 = and i64 %95, 1
  %97 = trunc i64 %96 to i32
  %98 = icmp ne i32 %97, 0
  br i1 %98, label %99, label %105

99:                                               ; preds = %91
  %100 = load ptr, ptr %4, align 8, !tbaa !3
  %101 = call i32 @ossl_quic_channel_on_handshake_confirmed(ptr noundef %100)
  %102 = load ptr, ptr %4, align 8, !tbaa !3
  %103 = getelementptr inbounds nuw %struct.quic_channel_st, ptr %102, i32 0, i32 12
  %104 = load ptr, ptr %103, align 8, !tbaa !112
  call void @ossl_quic_tx_packetiser_schedule_handshake_done(ptr noundef %104)
  br label %105

105:                                              ; preds = %99, %91
  %106 = load ptr, ptr %4, align 8, !tbaa !3
  %107 = load ptr, ptr %4, align 8, !tbaa !3
  %108 = getelementptr inbounds nuw %struct.quic_channel_st, ptr %107, i32 0, i32 72
  %109 = load i64, ptr %108, align 8
  %110 = and i64 %109, 7
  %111 = trunc i64 %110 to i32
  call void @ch_record_state_transition(ptr noundef %106, i32 noundef %111)
  store i32 1, ptr %2, align 4
  store i32 1, ptr %5, align 4
  br label %112

112:                                              ; preds = %105, %52, %40, %23
  call void @llvm.lifetime.end.p0(i64 8, ptr %4) #9
  %113 = load i32, ptr %2, align 4
  ret i32 %113
}