; Function Attrs: nounwind uwtable
define internal range(i32 0, 2) i32 @ch_on_handshake_complete(ptr noundef %0) #0 {
  %2 = alloca %struct.qlog_trace_info_st, align 8
  %3 = getelementptr inbounds nuw i8, ptr %0, i64 1568
  %4 = load i64, ptr %3, align 8
  %5 = and i64 %4, 115200
  %or.cond = icmp eq i64 %5, 49152
  br i1 %or.cond, label %6, label %69, !prof !271

6:                                                ; preds = %1
  %7 = getelementptr inbounds nuw i8, ptr %0, i64 216
  %8 = load ptr, ptr %7, align 8, !tbaa !109
  tail call void @ossl_quic_tx_packetiser_set_validated(ptr noundef %8) #15
  %9 = load i64, ptr %3, align 8
  %10 = and i64 %9, 128
  %.not24 = icmp eq i64 %10, 0
  br i1 %.not24, label %11, label %12

11:                                               ; preds = %6
  tail call void @ossl_quic_channel_raise_protocol_error_loc(ptr noundef nonnull %0, i64 noundef 365, i64 noundef 6, ptr noundef nonnull @.str.93, ptr noundef null, ptr noundef nonnull @.str, i32 noundef 1119, ptr noundef nonnull @__func__.ch_on_handshake_complete)
  br label %69

12:                                               ; preds = %6
  %13 = getelementptr inbounds nuw i8, ptr %0, i64 80
  %14 = load ptr, ptr %13, align 8, !tbaa !166
  tail call void @CRYPTO_free(ptr noundef %14, ptr noundef nonnull @.str, i32 noundef 1124) #15
  store ptr null, ptr %13, align 8, !tbaa !166
  %15 = getelementptr inbounds nuw i8, ptr %0, i64 1064
  %16 = load ptr, ptr %15, align 8, !tbaa !116
  tail call void @ossl_qrx_allow_1rtt_processing(ptr noundef %16) #15
  %17 = load ptr, ptr %7, align 8, !tbaa !109
  tail call void @ossl_quic_tx_packetiser_notify_handshake_complete(ptr noundef %17) #15
  %18 = load i64, ptr %3, align 8
  %19 = or i64 %18, 512
  store i64 %19, ptr %3, align 8
  %20 = getelementptr inbounds nuw i8, ptr %0, i64 88
  %21 = load ptr, ptr %20, align 8, !tbaa !170
  %.not25 = icmp eq ptr %21, null
  br i1 %.not25, label %27, label %22

22:                                               ; preds = %12
  %23 = getelementptr inbounds nuw i8, ptr %0, i64 96
  %24 = load i64, ptr %23, align 8, !tbaa !272
  %25 = tail call i32 @ossl_quic_channel_schedule_new_token(ptr noundef nonnull %0, ptr noundef nonnull %21, i64 noundef %24)
  %26 = load ptr, ptr %20, align 8, !tbaa !170
  tail call void @CRYPTO_free(ptr noundef %26, ptr noundef nonnull @.str, i32 noundef 1147) #15
  tail call void @llvm.memset.p0.i64(ptr noundef nonnull align 8 dereferenceable(16) %20, i8 0, i64 16, i1 false)
  %.pre = load i64, ptr %3, align 8
  br label %27

27:                                               ; preds = %22, %12
  %28 = phi i64 [ %.pre, %22 ], [ %19, %12 ]
  %29 = and i64 %28, 33554432
  %.not26 = icmp eq i64 %29, 0
  br i1 %.not26, label %33, label %30

30:                                               ; preds = %27
  %31 = tail call i32 @ossl_quic_channel_on_handshake_confirmed(ptr noundef nonnull %0)
  %32 = load ptr, ptr %7, align 8, !tbaa !109
  tail call void @ossl_quic_tx_packetiser_schedule_handshake_done(ptr noundef %32) #15
  %.pre28 = load i64, ptr %3, align 8
  br label %33

33:                                               ; preds = %30, %27
  %34 = phi i64 [ %.pre28, %30 ], [ %28, %27 ]
  %35 = trunc i64 %34 to i32
  %36 = and i32 %35, 7
  call void @llvm.lifetime.start.p0(i64 88, ptr nonnull %2) #15
  %37 = getelementptr inbounds nuw i8, ptr %2, i64 16
  call void @llvm.memset.p0.i64(ptr noundef nonnull align 8 dereferenceable(88) %37, i8 0, i64 72, i1 false)
  %38 = getelementptr inbounds nuw i8, ptr %0, i64 72
  %39 = load ptr, ptr %38, align 8, !tbaa !171
  %.not.i.i = icmp eq ptr %39, null
  br i1 %.not.i.i, label %40, label %ch_record_state_transition.exit

40:                                               ; preds = %33
  %41 = and i64 %34, 2199023255552
  %.not15.i.i = icmp eq i64 %41, 0
  br i1 %.not15.i.i, label %ch_record_state_transition.exit, label %42

42:                                               ; preds = %40
  %43 = and i64 %34, 33554432
  %.not16.i.i = icmp eq i64 %43, 0
  br i1 %.not16.i.i, label %48, label %44

44:                                               ; preds = %42
  %45 = getelementptr inbounds nuw i8, ptr %0, i64 1144
  %46 = load i8, ptr %45, align 8, !tbaa !179
  %47 = icmp eq i8 %46, 0
  br i1 %47, label %ch_record_state_transition.exit, label %48

48:                                               ; preds = %44, %42
  %49 = getelementptr inbounds nuw i8, ptr %0, i64 1144
  call void @llvm.memcpy.p0.p0.i64(ptr noundef nonnull align 8 dereferenceable(21) %2, ptr noundef nonnull align 8 dereferenceable(21) %49, i64 21, i1 false), !tbaa.struct !85
  %50 = getelementptr inbounds nuw i8, ptr %0, i64 1600
  %51 = load ptr, ptr %50, align 8, !tbaa !161
  %52 = getelementptr inbounds nuw i8, ptr %2, i64 24
  store ptr %51, ptr %52, align 8, !tbaa !180
  %53 = getelementptr inbounds nuw i8, ptr %2, i64 32
  %54 = lshr i32 %35, 25
  %55 = and i32 %54, 1
  %56 = getelementptr inbounds nuw i8, ptr %2, i64 48
  call void @llvm.memset.p0.i64(ptr noundef nonnull align 8 dereferenceable(16) %53, i8 0, i64 16, i1 false)
  store i32 %55, ptr %56, align 8, !tbaa !182
  %57 = getelementptr inbounds nuw i8, ptr %2, i64 56
  store ptr @get_time, ptr %57, align 8, !tbaa !183
  %58 = getelementptr inbounds nuw i8, ptr %2, i64 64
  store ptr %0, ptr %58, align 8, !tbaa !184
  %59 = call ptr @ossl_qlog_new_from_env(ptr noundef nonnull %2) #15
  store ptr %59, ptr %38, align 8, !tbaa !171
  %60 = icmp eq ptr %59, null
  %.pre.i = load i64, ptr %3, align 8
  br i1 %60, label %61, label %ch_record_state_transition.exit

61:                                               ; preds = %48
  %62 = and i64 %.pre.i, -2199023255553
  store i64 %62, ptr %3, align 8
  br label %ch_record_state_transition.exit

ch_record_state_transition.exit:                  ; preds = %33, %40, %44, %48, %61
  %63 = phi i64 [ %62, %61 ], [ %34, %33 ], [ %34, %40 ], [ %34, %44 ], [ %.pre.i, %48 ]
  %.0.i.i = phi ptr [ null, %61 ], [ %39, %33 ], [ null, %40 ], [ null, %44 ], [ %59, %48 ]
  call void @llvm.lifetime.end.p0(i64 88, ptr nonnull %2) #15
  %64 = trunc i64 %63 to i32
  %65 = lshr i32 %64, 9
  %66 = and i32 %65, 1
  %67 = lshr i32 %64, 10
  %68 = and i32 %67, 1
  call void @ossl_qlog_event_connectivity_connection_state_updated(ptr noundef %.0.i.i, i32 noundef %36, i32 noundef range(i32 0, 8) %36, i32 noundef %66, i32 noundef %68) #15
  br label %69

69:                                               ; preds = %1, %ch_record_state_transition.exit, %11
  %.0 = phi i32 [ 1, %ch_record_state_transition.exit ], [ 0, %11 ], [ 0, %1 ]
  ret i32 %.0
}